target datalayout = "e-m:e-p270:32:32-p271:32:32-p272:64:64-i64:64-i128:128-f80:128-n8:16:32:64-S128"
target triple = "x86_64-pc-linux-gnu"

%struct.pm_string_t = type { ptr, i64, i32 }

; Function Attrs: alwaysinline nounwind
define internal ptr @memmove.inline(ptr nonnull %0, ptr nonnull %1, i64 %2) #6 {
  %4 = alloca ptr, align 8
  %5 = alloca ptr, align 8
  %6 = alloca i64, align 8
  store ptr %0, ptr %4, align 8, !tbaa !57
  store ptr %1, ptr %5, align 8, !tbaa !57
  store i64 %2, ptr %6, align 8, !tbaa !14
  %7 = load ptr, ptr %4, align 8, !tbaa !57
  %8 = load ptr, ptr %5, align 8, !tbaa !57
  %9 = load i64, ptr %6, align 8, !tbaa !14
  %10 = load ptr, ptr %4, align 8, !tbaa !57
  %11 = call i64 @llvm.objectsize.i64.p0(ptr %10, i1 false, i1 true, i1 false)
  %12 = call ptr @__memmove_chk(ptr noundef %7, ptr noundef %8, i64 noundef %9, i64 noundef %11) #15
  ret ptr %12
}

; Function Attrs: nounwind sspstrong uwtable
define internal void @parse_heredoc_dedent_string(ptr noundef %0, i64 noundef %1) #0 {
  %3 = alloca ptr, align 8
  %4 = alloca i64, align 8
  %5 = alloca i64, align 8
  %6 = alloca ptr, align 8
  %7 = alloca ptr, align 8
  %8 = alloca i64, align 8
  store ptr %0, ptr %3, align 8, !tbaa !57
  store i64 %1, ptr %4, align 8, !tbaa !14
  %9 = load ptr, ptr %3, align 8, !tbaa !57
  call void @pm_string_ensure_owned(ptr noundef %9)
  call void @llvm.lifetime.start.p0(i64 8, ptr %5) #15
  %10 = load ptr, ptr %3, align 8, !tbaa !57
  %11 = call i64 @pm_string_length(ptr noundef %10)
  store i64 %11, ptr %5, align 8, !tbaa !14
  call void @llvm.lifetime.start.p0(i64 8, ptr %6) #15
  %12 = load ptr, ptr %3, align 8, !tbaa !57
  %13 = getelementptr inbounds nuw %struct.pm_string_t, ptr %12, i32 0, i32 0
  %14 = load ptr, ptr %13, align 8, !tbaa !546
  store ptr %14, ptr %6, align 8, !tbaa !12
  call void @llvm.lifetime.start.p0(i64 8, ptr %7) #15
  %15 = load ptr, ptr %6, align 8, !tbaa !12
  %16 = load i64, ptr %5, align 8, !tbaa !14
  %17 = getelementptr i8, ptr %15, i64 %16
  store ptr %17, ptr %7, align 8, !tbaa !12
  call void @llvm.lifetime.start.p0(i64 8, ptr %8) #15
  store i64 0, ptr %8, align 8, !tbaa !14
  br label %18

18:                                               ; preds = %50, %2
  %19 = load ptr, ptr %6, align 8, !tbaa !12
  %20 = load ptr, ptr %7, align 8, !tbaa !12
  %21 = icmp ult ptr %19, %20
  br i1 %21, label %22, label %30

22:                                               ; preds = %18
  %23 = load ptr, ptr %6, align 8, !tbaa !12
  %24 = load i8, ptr %23, align 1, !tbaa !39
  %25 = call zeroext i1 @pm_char_is_inline_whitespace(i8 noundef zeroext %24)
  br i1 %25, label %26, label %30

26:                                               ; preds = %22
  %27 = load i64, ptr %8, align 8, !tbaa !14
  %28 = load i64, ptr %4, align 8, !tbaa !14
  %29 = icmp ult i64 %27, %28
  br label %30

30:                                               ; preds = %26, %22, %18
  %31 = phi i1 [ false, %22 ], [ false, %18 ], [ %29, %26 ]
  br i1 %31, label %32, label %55

32:                                               ; preds = %30
  %33 = load ptr, ptr %6, align 8, !tbaa !12
  %34 = load i8, ptr %33, align 1, !tbaa !39
  %35 = zext i8 %34 to i32
  %36 = icmp eq i32 %35, 9
  br i1 %36, label %37, label %47

37:                                               ; preds = %32
  %38 = load i64, ptr %8, align 8, !tbaa !14
  %39 = udiv i64 %38, 8
  %40 = add i64 %39, 1
  %41 = mul i64 %40, 8
  store i64 %41, ptr %8, align 8, !tbaa !14
  %42 = load i64, ptr %8, align 8, !tbaa !14
  %43 = load i64, ptr %4, align 8, !tbaa !14
  %44 = icmp ugt i64 %42, %43
  br i1 %44, label %45, label %46

45:                                               ; preds = %37
  br label %55

46:                                               ; preds = %37
  br label %50

47:                                               ; preds = %32
  %48 = load i64, ptr %8, align 8, !tbaa !14
  %49 = add i64 %48, 1
  store i64 %49, ptr %8, align 8, !tbaa !14
  br label %50

50:                                               ; preds = %47, %46
  %51 = load ptr, ptr %6, align 8, !tbaa !12
  %52 = getelementptr i8, ptr %51, i32 1
  store ptr %52, ptr %6, align 8, !tbaa !12
  %53 = load i64, ptr %5, align 8, !tbaa !14
  %54 = add i64 %53, -1
  store i64 %54, ptr %5, align 8, !tbaa !14
  br label %18, !llvm.loop !547

55:                                               ; preds = %45, %30
  %56 = load ptr, ptr %3, align 8, !tbaa !57
  %57 = getelementptr inbounds nuw %struct.pm_string_t, ptr %56, i32 0, i32 0
  %58 = load ptr, ptr %57, align 8, !tbaa !546
  %59 = load ptr, ptr %6, align 8, !tbaa !12
  %60 = load ptr, ptr %7, align 8, !tbaa !12
  %61 = load ptr, ptr %6, align 8, !tbaa !12
  %62 = ptrtoint ptr %60 to i64
  %63 = ptrtoint ptr %61 to i64
  %64 = sub i64 %62, %63
  %65 = call ptr @memmove.inline(ptr noundef %58, ptr noundef %59, i64 noundef %64) #15
  %66 = load i64, ptr %5, align 8, !tbaa !14
  %67 = load ptr, ptr %3, align 8, !tbaa !57
  %68 = getelementptr inbounds nuw %struct.pm_string_t, ptr %67, i32 0, i32 1
  store i64 %66, ptr %68, align 8, !tbaa !548
  call void @llvm.lifetime.end.p0(i64 8, ptr %8) #15
  call void @llvm.lifetime.end.p0(i64 8, ptr %7) #15
  call void @llvm.lifetime.end.p0(i64 8, ptr %6) #15
  call void @llvm.lifetime.end.p0(i64 8, ptr %5) #15
  ret void
}