; Function Attrs: nounwind sspstrong uwtable
define internal fastcc void @parse_heredoc_dedent_string(ptr noundef nonnull %0, i64 noundef %1) unnamed_addr #1 {
  tail call void @pm_string_ensure_owned(ptr noundef nonnull %0) #31
  %3 = tail call i64 @pm_string_length(ptr noundef nonnull %0) #31
  %4 = load ptr, ptr %0, align 8, !tbaa !464
  %5 = getelementptr i8, ptr %4, i64 %3
  %6 = icmp ult ptr %4, %5
  br i1 %6, label %.lr.ph, label %.critedge

.lr.ph:                                           ; preds = %2, %19
  %.028 = phi i64 [ %.1, %19 ], [ 0, %2 ]
  %.02227 = phi i64 [ %21, %19 ], [ %3, %2 ]
  %.02326 = phi ptr [ %20, %19 ], [ %4, %2 ]
  %7 = load i8, ptr %.02326, align 1, !tbaa !65
  %8 = tail call zeroext i1 @pm_char_is_inline_whitespace(i8 noundef zeroext %7) #31
  %9 = icmp ult i64 %.028, %1
  %or.cond = select i1 %8, i1 %9, i1 false
  br i1 %or.cond, label %10, label %.critedge.loopexit

10:                                               ; preds = %.lr.ph
  %11 = load i8, ptr %.02326, align 1, !tbaa !65
  %12 = icmp eq i8 %11, 9
  br i1 %12, label %13, label %17

13:                                               ; preds = %10
  %14 = and i64 %.028, -8
  %15 = add i64 %14, 8
  %16 = icmp ugt i64 %15, %1
  br i1 %16, label %.critedge.loopexit, label %19

17:                                               ; preds = %10
  %18 = add nuw i64 %.028, 1
  br label %19

19:                                               ; preds = %13, %17
  %.1 = phi i64 [ %15, %13 ], [ %18, %17 ]
  %20 = getelementptr i8, ptr %.02326, i64 1
  %21 = add i64 %.02227, -1
  %exitcond.not = icmp eq ptr %20, %5
  br i1 %exitcond.not, label %.critedge.loopexit, label %.lr.ph, !llvm.loop !465

.critedge.loopexit:                               ; preds = %.lr.ph, %19, %13
  %.023.lcssa.ph = phi ptr [ %.02326, %13 ], [ %5, %19 ], [ %.02326, %.lr.ph ]
  %.022.lcssa.ph = phi i64 [ %.02227, %13 ], [ 0, %19 ], [ %.02227, %.lr.ph ]
  %.pre = load ptr, ptr %0, align 8, !tbaa !464
  br label %.critedge

.critedge:                                        ; preds = %.critedge.loopexit, %2
  %22 = phi ptr [ %4, %2 ], [ %.pre, %.critedge.loopexit ]
  %.023.lcssa = phi ptr [ %4, %2 ], [ %.023.lcssa.ph, %.critedge.loopexit ]
  %.022.lcssa = phi i64 [ %3, %2 ], [ %.022.lcssa.ph, %.critedge.loopexit ]
  %23 = ptrtoint ptr %5 to i64
  %24 = ptrtoint ptr %.023.lcssa to i64
  %25 = sub i64 %23, %24
  tail call void @llvm.memmove.p0.p0.i64(ptr noundef nonnull align 1 %22, ptr noundef nonnull align 1 %.023.lcssa, i64 noundef %25, i1 noundef false) #31
  %26 = getelementptr inbounds nuw i8, ptr %0, i64 8
  store i64 %.022.lcssa, ptr %26, align 8, !tbaa !466
  ret void
}